target datalayout = "e-m:e-p270:32:32-p271:32:32-p272:64:64-i64:64-i128:128-f80:128-n8:16:32:64-S128"
target triple = "x86_64-pc-linux-gnu"

; Function Attrs: nounwind uwtable
define dso_local ptr @raxNewNode(i64 noundef %0, i32 noundef %1) #0 {
  %3 = alloca ptr, align 8
  %4 = alloca i64, align 8
  %5 = alloca i32, align 4
  %6 = alloca i64, align 8
  %7 = alloca ptr, align 8
  %8 = alloca i32, align 4
  store i64 %0, ptr %4, align 8, !tbaa !9
  store i32 %1, ptr %5, align 4, !tbaa !5
  call void @llvm.lifetime.start.p0(i64 8, ptr %6) #13
  %9 = load i64, ptr %4, align 8, !tbaa !9
  %10 = add i64 4, %9
  %11 = load i64, ptr %4, align 8, !tbaa !9
  %12 = add i64 %11, 4
  %13 = urem i64 %12, 8
  %14 = sub i64 8, %13
  %15 = and i64 %14, 7
  %16 = add i64 %10, %15
  %17 = load i64, ptr %4, align 8, !tbaa !9
  %18 = mul i64 8, %17
  %19 = add i64 %16, %18
  store i64 %19, ptr %6, align 8, !tbaa !9
  %20 = load i32, ptr %5, align 4, !tbaa !5
  %21 = icmp ne i32 %20, 0
  br i1 %21, label %22, label %25

22:                                               ; preds = %2
  %23 = load i64, ptr %6, align 8, !tbaa !9
  %24 = add i64 %23, 8
  store i64 %24, ptr %6, align 8, !tbaa !9
  br label %25

25:                                               ; preds = %22, %2
  call void @llvm.lifetime.start.p0(i64 8, ptr %7) #13
  %26 = load i64, ptr %6, align 8, !tbaa !9
  %27 = call noalias ptr @zmalloc(i64 noundef %26) #14
  store ptr %27, ptr %7, align 8, !tbaa !11
  %28 = load ptr, ptr %7, align 8, !tbaa !11
  %29 = icmp eq ptr %28, null
  br i1 %29, label %30, label %31

30:                                               ; preds = %25
  store ptr null, ptr %3, align 8
  store i32 1, ptr %8, align 4
  br label %53

31:                                               ; preds = %25
  %32 = load ptr, ptr %7, align 8, !tbaa !11
  %33 = load i32, ptr %32, align 4
  %34 = and i32 %33, -2
  %35 = or i32 %34, 0
  store i32 %35, ptr %32, align 4
  %36 = load ptr, ptr %7, align 8, !tbaa !11
  %37 = load i32, ptr %36, align 4
  %38 = and i32 %37, -3
  %39 = or i32 %38, 0
  store i32 %39, ptr %36, align 4
  %40 = load ptr, ptr %7, align 8, !tbaa !11
  %41 = load i32, ptr %40, align 4
  %42 = and i32 %41, -5
  %43 = or i32 %42, 0
  store i32 %43, ptr %40, align 4
  %44 = load i64, ptr %4, align 8, !tbaa !9
  %45 = trunc i64 %44 to i32
  %46 = load ptr, ptr %7, align 8, !tbaa !11
  %47 = load i32, ptr %46, align 4
  %48 = and i32 %45, 536870911
  %49 = shl i32 %48, 3
  %50 = and i32 %47, 7
  %51 = or i32 %50, %49
  store i32 %51, ptr %46, align 4
  %52 = load ptr, ptr %7, align 8, !tbaa !11
  store ptr %52, ptr %3, align 8
  store i32 1, ptr %8, align 4
  br label %53

53:                                               ; preds = %31, %30
  call void @llvm.lifetime.end.p0(i64 8, ptr %7) #13
  call void @llvm.lifetime.end.p0(i64 8, ptr %6) #13
  %54 = load ptr, ptr %3, align 8
  ret ptr %54
}