; Function Attrs: nounwind uwtable
define dso_local noalias ptr @raxNewNode(i64 noundef %0, i32 noundef %1) local_unnamed_addr #1 {
  %3 = add i64 %0, 4
  %4 = sub i64 4, %0
  %5 = and i64 %4, 7
  %6 = shl i64 %0, 3
  %7 = add i64 %3, %6
  %8 = add i64 %7, %5
  %.not = icmp eq i32 %1, 0
  %9 = add i64 %8, 8
  %spec.select = select i1 %.not, i64 %8, i64 %9
  %10 = tail call noalias ptr @zmalloc(i64 noundef %spec.select) #25
  %11 = icmp eq ptr %10, null
  br i1 %11, label %15, label %12

12:                                               ; preds = %2
  %13 = trunc i64 %0 to i32
  %14 = shl i32 %13, 3
  store i32 %14, ptr %10, align 4
  br label %15

15:                                               ; preds = %2, %12
  ret ptr %10
}